; Function Attrs: nounwind uwtable
define range(i32 -558323010, -2147483648) i32 @av_audio_fifo_peek(ptr noundef readonly captures(none) %0, ptr noundef readonly captures(none) %1, i32 noundef %2) local_unnamed_addr #0 {
  %4 = getelementptr inbounds nuw i8, ptr %0, i64 12
  %5 = load i32, ptr %4, align 4, !tbaa !24
  %.not.i = icmp slt i32 %5, 1
  %6 = icmp slt i32 %2, 0
  %or.cond.i = or i1 %6, %.not.i
  br i1 %or.cond.i, label %av_audio_fifo_peek_at.exit, label %7

7:                                                ; preds = %3
  %..i = tail call i32 @llvm.umin.i32(i32 %2, i32 %5)
  %.not31.i = icmp eq i32 %2, 0
  br i1 %.not31.i, label %av_audio_fifo_peek_at.exit, label %8

8:                                                ; preds = %7
  %9 = getelementptr inbounds nuw i8, ptr %0, i64 8
  %10 = load i32, ptr %9, align 8, !tbaa !12
  %11 = icmp sgt i32 %10, 0
  br i1 %11, label %.lr.ph.i, label %av_audio_fifo_peek_at.exit

.lr.ph.i:                                         ; preds = %8
  %12 = getelementptr inbounds nuw i8, ptr %0, i64 28
  %13 = load i32, ptr %12, align 4, !tbaa !18
  %14 = mul nsw i32 %13, %..i
  %15 = sext i32 %14 to i64
  br label %20

16:                                               ; preds = %20
  %indvars.iv.next.i = add nuw nsw i64 %indvars.iv.i, 1
  %17 = load i32, ptr %9, align 8, !tbaa !12
  %18 = sext i32 %17 to i64
  %19 = icmp slt i64 %indvars.iv.next.i, %18
  br i1 %19, label %20, label %av_audio_fifo_peek_at.exit, !llvm.loop !27

20:                                               ; preds = %16, %.lr.ph.i
  %indvars.iv.i = phi i64 [ 0, %.lr.ph.i ], [ %indvars.iv.next.i, %16 ]
  %21 = load ptr, ptr %0, align 8, !tbaa !4
  %22 = getelementptr inbounds nuw ptr, ptr %21, i64 %indvars.iv.i
  %23 = load ptr, ptr %22, align 8, !tbaa !20
  %24 = getelementptr inbounds nuw ptr, ptr %1, i64 %indvars.iv.i
  %25 = load ptr, ptr %24, align 8, !tbaa !26
  %26 = tail call i32 @av_fifo_peek(ptr noundef %23, ptr noundef %25, i64 noundef %15, i64 noundef 0) #5
  %27 = icmp slt i32 %26, 0
  br i1 %27, label %av_audio_fifo_peek_at.exit, label %16

av_audio_fifo_peek_at.exit:                       ; preds = %16, %20, %3, %7, %8
  %.0.i = phi i32 [ -22, %3 ], [ 0, %7 ], [ %..i, %8 ], [ %..i, %16 ], [ -558323010, %20 ]
  ret i32 %.0.i
}